; Function Attrs: mustprogress nounwind uwtable
define dso_local void @_ZN4llvm3lto26createInProcessThinBackendENS_18ThreadPoolStrategyESt8functionIFvRKNSt7__cxx1112basic_stringIcSt11char_traitsIcESaIcEEEEEbb(ptr dead_on_unwind noalias writable writeonly sret(%"class.std::function.364") align 8 captures(none) initializes((0, 32)) %0, i64 %1, ptr noundef %2, i1 noundef zeroext %3, i1 noundef zeroext %4) local_unnamed_addr #0 {
  %6 = alloca %class.anon.704, align 8
  %7 = zext i1 %3 to i8
  %8 = zext i1 %4 to i8
  %.sroa.0.0.extract.trunc = trunc i64 %1 to i48
  store i48 %.sroa.0.0.extract.trunc, ptr %6, align 8
  %9 = getelementptr inbounds nuw i8, ptr %6, i64 8
  %10 = getelementptr inbounds nuw i8, ptr %2, i64 16
  call void @llvm.memset.p0.i64(ptr noundef nonnull align 8 dereferenceable(32) %9, i8 0, i64 32, i1 false)
  %11 = load ptr, ptr %10, align 8
  %.not.i.i.not.i = icmp eq ptr %11, null
  br i1 %.not.i.i.not.i, label %_ZNSt8functionIFvRKNSt7__cxx1112basic_stringIcSt11char_traitsIcESaIcEEEEEC2ERKS9_.exit, label %12

12:                                               ; preds = %5
  %13 = call noundef zeroext i1 %11(ptr noundef nonnull align 8 dereferenceable(32) %9, ptr noundef nonnull align 8 dereferenceable(32) %2, i32 noundef 2) #28
  %14 = getelementptr inbounds nuw i8, ptr %2, i64 24
  %15 = load ptr, ptr %14, align 8
  %16 = load ptr, ptr %10, align 8
  br label %_ZNSt8functionIFvRKNSt7__cxx1112basic_stringIcSt11char_traitsIcESaIcEEEEEC2ERKS9_.exit

_ZNSt8functionIFvRKNSt7__cxx1112basic_stringIcSt11char_traitsIcESaIcEEEEEC2ERKS9_.exit: ; preds = %5, %12
  %17 = phi ptr [ null, %5 ], [ %16, %12 ]
  %18 = phi ptr [ null, %5 ], [ %15, %12 ]
  %19 = getelementptr inbounds nuw i8, ptr %6, i64 40
  store i8 %7, ptr %19, align 8
  %20 = getelementptr inbounds nuw i8, ptr %6, i64 41
  store i8 %8, ptr %20, align 1
  %21 = getelementptr inbounds nuw i8, ptr %0, i64 8
  store i64 0, ptr %21, align 8
  %22 = call noalias noundef nonnull dereferenceable(48) ptr @_Znwm(i64 noundef 48) #29
  %23 = load i64, ptr %6, align 8
  store i64 %23, ptr %22, align 8
  %24 = getelementptr inbounds nuw i8, ptr %22, i64 8
  %25 = getelementptr inbounds nuw i8, ptr %22, i64 32
  call void @llvm.memset.p0.i64(ptr noundef nonnull align 8 dereferenceable(32) %24, i8 0, i64 24, i1 false)
  store ptr %18, ptr %25, align 8
  %.not.i.i.not.i.i.i.i.i = icmp eq ptr %17, null
  br i1 %.not.i.i.not.i.i.i.i.i, label %"_ZZN4llvm3lto26createInProcessThinBackendENS_18ThreadPoolStrategyESt8functionIFvRKNSt7__cxx1112basic_stringIcSt11char_traitsIcESaIcEEEEEbbEN3$_0D2Ev.exit", label %26

26:                                               ; preds = %_ZNSt8functionIFvRKNSt7__cxx1112basic_stringIcSt11char_traitsIcESaIcEEEEEC2ERKS9_.exit
  %27 = getelementptr inbounds nuw i8, ptr %22, i64 24
  call void @llvm.memcpy.p0.p0.i64(ptr noundef nonnull align 8 dereferenceable(32) %24, ptr noundef nonnull align 8 dereferenceable(32) %9, i64 16, i1 false)
  store ptr %17, ptr %27, align 8
  br label %"_ZZN4llvm3lto26createInProcessThinBackendENS_18ThreadPoolStrategyESt8functionIFvRKNSt7__cxx1112basic_stringIcSt11char_traitsIcESaIcEEEEEbbEN3$_0D2Ev.exit"

"_ZZN4llvm3lto26createInProcessThinBackendENS_18ThreadPoolStrategyESt8functionIFvRKNSt7__cxx1112basic_stringIcSt11char_traitsIcESaIcEEEEEbbEN3$_0D2Ev.exit": ; preds = %26, %_ZNSt8functionIFvRKNSt7__cxx1112basic_stringIcSt11char_traitsIcESaIcEEEEEC2ERKS9_.exit
  %28 = getelementptr inbounds nuw i8, ptr %0, i64 24
  %29 = getelementptr inbounds nuw i8, ptr %0, i64 16
  %30 = getelementptr inbounds nuw i8, ptr %22, i64 40
  %31 = load i16, ptr %19, align 8
  store i16 %31, ptr %30, align 8
  store ptr %22, ptr %0, align 8
  store ptr @"_ZNSt17_Function_handlerIFSt10unique_ptrIN4llvm3lto15ThinBackendProcESt14default_deleteIS3_EERKNS2_6ConfigERNS1_18ModuleSummaryIndexERNS1_8DenseMapINS1_9StringRefENSC_ImPNS1_18GlobalValueSummaryENS1_12DenseMapInfoImvEENS1_6detail12DenseMapPairImSF_EEEENSG_ISD_vEENSJ_ISD_SL_EEEESt8functionIFNS1_8ExpectedIS0_INS1_16CachedFileStreamES4_ISS_EEEEjRKNS1_5TwineEEESQ_IFNSR_IS10_EEjSD_SY_EEEZNS2_26createInProcessThinBackendENS1_18ThreadPoolStrategyESQ_IFvRKNSt7__cxx1112basic_stringIcSt11char_traitsIcESaIcEEEEEbbE3$_0E9_M_invokeERKSt9_Any_dataS9_SB_SP_OS10_OS13_", ptr %28, align 8
  store ptr @"_ZNSt17_Function_handlerIFSt10unique_ptrIN4llvm3lto15ThinBackendProcESt14default_deleteIS3_EERKNS2_6ConfigERNS1_18ModuleSummaryIndexERNS1_8DenseMapINS1_9StringRefENSC_ImPNS1_18GlobalValueSummaryENS1_12DenseMapInfoImvEENS1_6detail12DenseMapPairImSF_EEEENSG_ISD_vEENSJ_ISD_SL_EEEESt8functionIFNS1_8ExpectedIS0_INS1_16CachedFileStreamES4_ISS_EEEEjRKNS1_5TwineEEESQ_IFNSR_IS10_EEjSD_SY_EEEZNS2_26createInProcessThinBackendENS1_18ThreadPoolStrategyESQ_IFvRKNSt7__cxx1112basic_stringIcSt11char_traitsIcESaIcEEEEEbbE3$_0E10_M_managerERSt9_Any_dataRKS1I_St18_Manager_operation", ptr %29, align 8
  ret void
}